target datalayout = "e-m:e-p270:32:32-p271:32:32-p272:64:64-i64:64-i128:128-f80:128-n8:16:32:64-S128"
target triple = "x86_64-pc-linux-gnu"

%struct.Kit_DsdNtk_t_ = type { i16, i16, i16, i16, ptr, ptr, ptr }

@.str.5 = private unnamed_addr constant [2 x i8] c"!\00", align 1
@.str.8 = private unnamed_addr constant [5 x i8] c"F = \00", align 1
@stdout = external global ptr, align 8

; Function Attrs: inlinehint nounwind uwtable
define internal i32 @Abc_Lit2Var(i32 noundef %0) #4 {
  %2 = alloca i32, align 4
  store i32 %0, ptr %2, align 4, !tbaa !3
  %3 = load i32, ptr %2, align 4, !tbaa !3
  %4 = ashr i32 %3, 1
  ret i32 %4
}

; Function Attrs: inlinehint nounwind uwtable
define internal i32 @Abc_LitIsCompl(i32 noundef %0) #4 {
  %2 = alloca i32, align 4
  store i32 %0, ptr %2, align 4, !tbaa !3
  %3 = load i32, ptr %2, align 4, !tbaa !3
  %4 = and i32 %3, 1
  ret i32 %4
}

; Function Attrs: nounwind uwtable
define void @Kit_DsdPrint(ptr noundef %0, ptr noundef %1) #0 {
  %3 = alloca ptr, align 8
  %4 = alloca ptr, align 8
  store ptr %0, ptr %3, align 8, !tbaa !51
  store ptr %1, ptr %4, align 8, !tbaa !37
  %5 = load ptr, ptr %3, align 8, !tbaa !51
  %6 = call i32 (ptr, ptr, ...) @fprintf(ptr noundef %5, ptr noundef @.str.8) #9
  %7 = load ptr, ptr %4, align 8, !tbaa !37
  %8 = getelementptr inbounds nuw %struct.Kit_DsdNtk_t_, ptr %7, i32 0, i32 3
  %9 = load i16, ptr %8, align 2, !tbaa !60
  %10 = zext i16 %9 to i32
  %11 = call i32 @Abc_LitIsCompl(i32 noundef %10)
  %12 = icmp ne i32 %11, 0
  br i1 %12, label %13, label %16

13:                                               ; preds = %2
  %14 = load ptr, ptr %3, align 8, !tbaa !51
  %15 = call i32 (ptr, ptr, ...) @fprintf(ptr noundef %14, ptr noundef @.str.5) #9
  br label %16

16:                                               ; preds = %13, %2
  %17 = load ptr, ptr %3, align 8, !tbaa !51
  %18 = load ptr, ptr %4, align 8, !tbaa !37
  %19 = load ptr, ptr %4, align 8, !tbaa !37
  %20 = getelementptr inbounds nuw %struct.Kit_DsdNtk_t_, ptr %19, i32 0, i32 3
  %21 = load i16, ptr %20, align 2, !tbaa !60
  %22 = zext i16 %21 to i32
  %23 = call i32 @Abc_Lit2Var(i32 noundef %22)
  call void @Kit_DsdPrint_rec(ptr noundef %17, ptr noundef %18, i32 noundef %23)
  ret void
}

; Function Attrs: nounwind uwtable
define ptr @Kit_DsdDecomposeMux(ptr noundef %0, i32 noundef %1, i32 noundef %2) #0 {
  %4 = alloca ptr, align 8
  %5 = alloca i32, align 4
  %6 = alloca i32, align 4
  store ptr %0, ptr %4, align 8, !tbaa !25
  store i32 %1, ptr %5, align 4, !tbaa !3
  store i32 %2, ptr %6, align 4, !tbaa !3
  %7 = load ptr, ptr %4, align 8, !tbaa !25
  %8 = load i32, ptr %5, align 4, !tbaa !3
  %9 = load i32, ptr %6, align 4, !tbaa !3
  %10 = call ptr @Kit_DsdDecomposeInt(ptr noundef %7, i32 noundef %8, i32 noundef %9)
  ret ptr %10
}

; Function Attrs: nounwind uwtable
define void @Kit_DsdPrintFromTruth(ptr noundef %0, i32 noundef %1) #0 {
  %3 = alloca ptr, align 8
  %4 = alloca i32, align 4
  %5 = alloca ptr, align 8
  %6 = alloca ptr, align 8
  store ptr %0, ptr %3, align 8, !tbaa !25
  store i32 %1, ptr %4, align 4, !tbaa !3
  call void @llvm.lifetime.start.p0(i64 8, ptr %5) #9
  call void @llvm.lifetime.start.p0(i64 8, ptr %6) #9
  %7 = load ptr, ptr %3, align 8, !tbaa !25
  %8 = load i32, ptr %4, align 4, !tbaa !3
  %9 = call ptr @Kit_DsdDecomposeMux(ptr noundef %7, i32 noundef %8, i32 noundef 8)
  store ptr %9, ptr %5, align 8, !tbaa !37
  %10 = load ptr, ptr %5, align 8, !tbaa !37
  %11 = call ptr @Kit_DsdExpand(ptr noundef %10)
  store ptr %11, ptr %6, align 8, !tbaa !37
  %12 = load ptr, ptr @stdout, align 8, !tbaa !51
  %13 = load ptr, ptr %6, align 8, !tbaa !37
  call void @Kit_DsdPrint(ptr noundef %12, ptr noundef %13)
  %14 = load ptr, ptr %6, align 8, !tbaa !37
  %15 = load ptr, ptr %3, align 8, !tbaa !25
  %16 = load i32, ptr %4, align 4, !tbaa !3
  call void @Kit_DsdVerify(ptr noundef %14, ptr noundef %15, i32 noundef %16)
  %17 = load ptr, ptr %6, align 8, !tbaa !37
  call void @Kit_DsdNtkFree(ptr noundef %17)
  %18 = load ptr, ptr %5, align 8, !tbaa !37
  call void @Kit_DsdNtkFree(ptr noundef %18)
  call void @llvm.lifetime.end.p0(i64 8, ptr %6) #9
  call void @llvm.lifetime.end.p0(i64 8, ptr %5) #9
  ret void
}