; Function Attrs: nounwind uwtable
define void @Kit_DsdPrintFromTruth(ptr noundef %0, i32 noundef %1) local_unnamed_addr #0 {
  %3 = tail call noundef ptr @Kit_DsdDecomposeInt(ptr noundef %0, i32 noundef %1, i32 noundef 8)
  %4 = tail call ptr @Kit_DsdExpand(ptr noundef %3)
  %5 = load ptr, ptr @stdout, align 8, !tbaa !54
  %6 = tail call i64 @fwrite(ptr nonnull @.str.8, i64 4, i64 1, ptr %5)
  %7 = getelementptr inbounds nuw i8, ptr %4, i64 6
  %8 = load i16, ptr %7, align 2, !tbaa !51
  %9 = and i16 %8, 1
  %.not.i = icmp eq i16 %9, 0
  br i1 %.not.i, label %Kit_DsdPrint.exit, label %10

10:                                               ; preds = %2
  %fputc.i = tail call i32 @fputc(i32 33, ptr %5)
  %.pre.i = load i16, ptr %7, align 2, !tbaa !51
  br label %Kit_DsdPrint.exit

Kit_DsdPrint.exit:                                ; preds = %2, %10
  %11 = phi i16 [ %.pre.i, %10 ], [ %8, %2 ]
  %12 = lshr i16 %11, 1
  %13 = zext nneg i16 %12 to i32
  tail call void @Kit_DsdPrint_rec(ptr noundef %5, ptr noundef nonnull readonly %4, i32 noundef %13)
  tail call void @Kit_DsdVerify(ptr noundef nonnull %4, ptr noundef %0, i32 noundef %1)
  tail call void @Kit_DsdNtkFree(ptr noundef nonnull %4)
  tail call void @Kit_DsdNtkFree(ptr noundef %3)
  ret void
}